; Function Attrs: mustprogress uwtable
define noundef i64 @_ZN7rocksdb14StatisticsImpl22getAndResetTickerCountEj(ptr noundef nonnull align 8 dereferenceable(112) %this, i32 noundef %tickerType) unnamed_addr #0 align 2 personality ptr @__gxx_personality_v0 {
entry:
  %aggregate_lock_ = getelementptr inbounds i8, ptr %this, i64 56
  tail call void @_ZN7rocksdb4port5Mutex4LockEv(ptr noundef nonnull align 8 dereferenceable(40) %aggregate_lock_)
  %size_shift_.i = getelementptr inbounds i8, ptr %this, i64 104
  %per_core_stats_ = getelementptr inbounds i8, ptr %this, i64 96
  %idxprom = zext i32 %tickerType to i64
  br label %monotonic.i

monotonic.i:                                      ; preds = %entry, %monotonic.i
  %sum.015 = phi i64 [ 0, %entry ], [ %add, %monotonic.i ]
  %core_idx.014 = phi i64 [ 0, %entry ], [ %inc, %monotonic.i ]
  %0 = load ptr, ptr %per_core_stats_, align 8
  %arrayidx.i.i = getelementptr inbounds %"struct.rocksdb::StatisticsImpl::StatisticsData", ptr %0, i64 %core_idx.014
  %arrayidx = getelementptr inbounds [216 x %"struct.std::atomic.51"], ptr %arrayidx.i.i, i64 0, i64 %idxprom
  %1 = atomicrmw xchg ptr %arrayidx, i64 0 monotonic, align 8
  %add = add i64 %1, %sum.015
  %inc = add nuw i64 %core_idx.014, 1
  %2 = load i32, ptr %size_shift_.i, align 8
  %sh_prom.i = zext nneg i32 %2 to i64
  %core_idx.0.highbits = lshr i64 %inc, %sh_prom.i
  %cmp = icmp eq i64 %core_idx.0.highbits, 0
  br i1 %cmp, label %monotonic.i, label %for.end, !llvm.loop !33

for.end:                                          ; preds = %monotonic.i
  invoke void @_ZN7rocksdb4port5Mutex6UnlockEv(ptr noundef nonnull align 8 dereferenceable(40) %aggregate_lock_)
          to label %_ZN7rocksdb9MutexLockD2Ev.exit11 unwind label %terminate.lpad.i10

terminate.lpad.i10:                               ; preds = %for.end
  %3 = landingpad { ptr, i32 }
          catch ptr null
  %4 = extractvalue { ptr, i32 } %3, 0
  tail call void @__clang_call_terminate(ptr %4) #28
  unreachable

_ZN7rocksdb9MutexLockD2Ev.exit11:                 ; preds = %for.end
  %stats_ = getelementptr inbounds i8, ptr %this, i64 40
  %5 = load ptr, ptr %stats_, align 8
  %cmp.i = icmp ne ptr %5, null
  %cmp7 = icmp ult i32 %tickerType, 215
  %or.cond = and i1 %cmp7, %cmp.i
  br i1 %or.cond, label %if.then, label %if.end

if.then:                                          ; preds = %_ZN7rocksdb9MutexLockD2Ev.exit11
  %vtable = load ptr, ptr %5, align 8
  %vfn = getelementptr inbounds i8, ptr %vtable, i64 184
  %6 = load ptr, ptr %vfn, align 8
  tail call void %6(ptr noundef nonnull align 8 dereferenceable(33) %5, i32 noundef %tickerType, i64 noundef 0)
  br label %if.end

if.end:                                           ; preds = %if.then, %_ZN7rocksdb9MutexLockD2Ev.exit11
  ret i64 %add
}